; ModuleID = 'source-C-CXX/55/911.c'
source_filename = "source-C-CXX/55/911.c"
target datalayout = "e-m:e-p270:32:32-p271:32:32-p272:64:64-i64:64-f80:128-n8:16:32:64-S128"
target triple = "x86_64-pc-linux-gnu"

@.str = private unnamed_addr constant [3 x i8] c"%d\00", align 1

; Function Attrs: nofree nounwind sspstrong uwtable
define dso_local void @main() local_unnamed_addr #0 {
  %1 = alloca i32, align 4
  %2 = bitcast i32* %1 to i8*
  call void @llvm.lifetime.start.p0i8(i64 4, i8* nonnull %2) #3
  %3 = call i32 (i8*, ...) @__isoc99_scanf(i8* getelementptr inbounds ([3 x i8], [3 x i8]* @.str, i64 0, i64 0), i32* nonnull %1)
  %4 = load i32, i32* %1, align 4, !tbaa !5
  %5 = sdiv i32 %4, 10000
  %6 = mul nsw i32 %5, -10000
  %7 = add i32 %6, %4
  %8 = sdiv i32 %7, 1000
  %9 = mul nsw i32 %8, -1000
  %10 = add i32 %9, %7
  %11 = sdiv i32 %10, 100
  %12 = mul nsw i32 %11, 100
  %13 = srem i32 %10, 100
  %14 = sdiv i32 %13, 10
  %15 = mul nsw i32 %14, 10
  %16 = srem i32 %13, 10
  %17 = add i32 %4, 9
  %18 = icmp ult i32 %17, 19
  br i1 %18, label %50, label %19

19:                                               ; preds = %0
  %20 = add i32 %4, 99
  %21 = icmp ult i32 %20, 199
  br i1 %21, label %22, label %25

22:                                               ; preds = %19
  %23 = mul nsw i32 %16, 10
  %24 = add nsw i32 %23, %14
  br label %50

25:                                               ; preds = %19
  %26 = add i32 %4, 999
  %27 = icmp ult i32 %26, 1999
  br i1 %27, label %28, label %32

28:                                               ; preds = %25
  %29 = mul nsw i32 %16, 100
  %30 = add i32 %15, %11
  %31 = add i32 %30, %29
  br label %50

32:                                               ; preds = %25
  %33 = add i32 %4, 9999
  %34 = icmp ult i32 %33, 19999
  br i1 %34, label %35, label %42

35:                                               ; preds = %32
  %36 = mul nsw i32 %16, 1000
  %37 = mul nsw i32 %14, 100
  %38 = mul nsw i32 %11, 10
  %39 = add nsw i32 %38, %8
  %40 = add i32 %39, %37
  %41 = add i32 %40, %36
  br label %50

42:                                               ; preds = %32
  %43 = mul nsw i32 %16, 10000
  %44 = mul nsw i32 %14, 1000
  %45 = mul nsw i32 %8, 10
  %46 = add nsw i32 %45, %5
  %47 = add i32 %46, %12
  %48 = add i32 %47, %44
  %49 = add i32 %48, %43
  br label %50

50:                                               ; preds = %0, %22, %35, %42, %28
  %51 = phi i32 [ %24, %22 ], [ %31, %28 ], [ %41, %35 ], [ %49, %42 ], [ %4, %0 ]
  %52 = call i32 (i8*, ...) @printf(i8* nonnull dereferenceable(1) getelementptr inbounds ([3 x i8], [3 x i8]* @.str, i64 0, i64 0), i32 %51)
  call void @llvm.lifetime.end.p0i8(i64 4, i8* nonnull %2) #3
  ret void
}

; Function Attrs: argmemonly mustprogress nofree nosync nounwind willreturn
declare void @llvm.lifetime.start.p0i8(i64 immarg, i8* nocapture) #1

; Function Attrs: nofree nounwind
declare noundef i32 @__isoc99_scanf(i8* nocapture noundef readonly, ...) local_unnamed_addr #2

; Function Attrs: nofree nounwind
declare noundef i32 @printf(i8* nocapture noundef readonly, ...) local_unnamed_addr #2

; Function Attrs: argmemonly mustprogress nofree nosync nounwind willreturn
declare void @llvm.lifetime.end.p0i8(i64 immarg, i8* nocapture) #1


!llvm.module.flags = !{!0, !1, !2, !3}
!llvm.ident = !{!4}

!0 = !{i32 1, !"wchar_size", i32 4}
!1 = !{i32 7, !"PIC Level", i32 2}
!2 = !{i32 7, !"PIE Level", i32 2}
!3 = !{i32 7, !"uwtable", i32 1}
!4 = !{!"clang version 13.0.0"}
!5 = !{!6, !6, i64 0}
!6 = !{!"int", !7, i64 0}
!7 = !{!"omnipotent char", !8, i64 0}
!8 = !{!"Simple C/C++ TBAA"}
